; Function Attrs: mustprogress noreturn uwtable
define internal void @_ZL14NoAllocNewHookv() #28 personality ptr @__gxx_personality_v0 {
  %1 = alloca %"class.google::LogMessageFatal", align 8
  call void @_ZN6google15LogMessageFatalC1EPKci(ptr noundef nonnull align 8 dereferenceable(96) %1, ptr noundef nonnull @.str.32, i32 noundef 357)
  %2 = invoke noundef nonnull align 8 dereferenceable(8) ptr @_ZN6google10LogMessage6streamEv(ptr noundef nonnull align 8 dereferenceable(96) %1)
          to label %3 unwind label %6

3:                                                ; preds = %0
  %4 = invoke noundef nonnull align 8 dereferenceable(8) ptr @_ZStlsISt11char_traitsIcEERSt13basic_ostreamIcT_ES5_PKc(ptr noundef nonnull align 8 dereferenceable(8) %2, ptr noundef nonnull @.str.48)
          to label %5 unwind label %6

5:                                                ; preds = %3
  call void @_ZN6google15LogMessageFatalD1Ev(ptr noundef nonnull align 8 dereferenceable(96) %1) #36
  unreachable

6:                                                ; preds = %3, %0
  %7 = landingpad { ptr, i32 }
          cleanup
  invoke void @_ZN6google15LogMessageFatalD1Ev(ptr noundef nonnull align 8 dereferenceable(96) %1) #36
          to label %8 unwind label %9

8:                                                ; preds = %6
  unreachable

9:                                                ; preds = %6
  %10 = landingpad { ptr, i32 }
          catch ptr null
  %11 = extractvalue { ptr, i32 } %10, 0
  call void @__clang_call_terminate(ptr %11) #37
  unreachable
}